; Function Attrs: null_pointer_is_valid sspstrong uwtable
define internal fastcc void @decode_Tango_Device_3_read_attribute_history_3(ptr noundef %0, ptr noundef %1, ptr noundef %2, ptr noundef %3, ptr noundef %4, ptr noundef %5, i1 noundef zeroext %6) unnamed_addr #0 {
  %8 = getelementptr inbounds nuw i8, ptr %5, i64 7
  %9 = load i8, ptr %8, align 1
  switch i8 %9, label %44 [
    i8 0, label %10
    i8 1, label %17
  ]

10:                                               ; preds = %7
  %11 = load i32, ptr @hf_Tango_Device_3_read_attribute_history_3_name, align 4
  tail call void @giop_add_CDR_string(ptr noundef %2, ptr noundef %0, ptr noundef %4, i1 noundef zeroext %6, i32 noundef 12, i32 noundef %11)
  %12 = load i32, ptr @hf_Tango_Device_3_read_attribute_history_3_n, align 4
  %13 = load i32, ptr %4, align 4
  %14 = add i32 %13, -4
  %15 = tail call i32 @get_CDR_long(ptr noundef %0, ptr noundef %4, i1 noundef zeroext %6, i32 noundef 12)
  %16 = tail call ptr @proto_tree_add_int(ptr noundef %2, i32 noundef %12, ptr noundef %0, i32 noundef %14, i32 noundef 4, i32 noundef %15)
  br label %.loopexit

17:                                               ; preds = %7
  %18 = getelementptr inbounds nuw i8, ptr %5, i64 16
  %19 = load i32, ptr %18, align 8
  switch i32 %19, label %42 [
    i32 0, label %20
    i32 1, label %.loopexit
  ]

20:                                               ; preds = %17
  %21 = tail call i32 @get_CDR_ulong(ptr noundef %0, ptr noundef %4, i1 noundef zeroext %6, i32 noundef 12)
  %22 = load i32, ptr @hf_Tango_Device_3_read_attribute_history_3_return_loop, align 4
  %23 = load i32, ptr %4, align 4
  %24 = add i32 %23, -4
  %25 = tail call ptr @proto_tree_add_uint(ptr noundef %2, i32 noundef %22, ptr noundef %0, i32 noundef %24, i32 noundef 4, i32 noundef %21)
  %26 = load i32, ptr %4, align 4
  %27 = load i32, ptr @ett_giop_sequence, align 4
  %28 = tail call ptr @proto_tree_add_subtree(ptr noundef %2, ptr noundef %0, i32 noundef %26, i32 noundef -1, i32 noundef %27, ptr noundef null, ptr noundef nonnull @.str.864)
  %.not = icmp eq i32 %21, 0
  br i1 %.not, label %.loopexit, label %.lr.ph

.lr.ph:                                           ; preds = %20, %.lr.ph
  %.01 = phi i32 [ %41, %.lr.ph ], [ 0, %20 ]
  %29 = load i32, ptr %4, align 4
  %30 = load i32, ptr @ett_giop_struct, align 4
  %31 = tail call ptr @proto_tree_add_subtree(ptr noundef %28, ptr noundef %0, i32 noundef %29, i32 noundef -1, i32 noundef %30, ptr noundef null, ptr noundef nonnull @.str.865)
  %32 = load i32, ptr @hf_Tango_DevAttrHistory_3_attr_failed, align 4
  %33 = load i32, ptr %4, align 4
  %34 = add i32 %33, -1
  %35 = tail call zeroext i1 @get_CDR_boolean(ptr noundef %0, ptr noundef %4)
  %36 = zext i1 %35 to i64
  %37 = tail call ptr @proto_tree_add_boolean(ptr noundef %31, i32 noundef %32, ptr noundef %0, i32 noundef %34, i32 noundef 1, i64 noundef %36)
  %38 = load i32, ptr %4, align 4
  %39 = load i32, ptr @ett_giop_struct, align 4
  %40 = tail call ptr @proto_tree_add_subtree(ptr noundef %31, ptr noundef %0, i32 noundef %38, i32 noundef -1, i32 noundef %39, ptr noundef null, ptr noundef nonnull @.str.866)
  tail call fastcc void @decode_Tango_AttributeValue_3_st(ptr noundef %0, ptr noundef %1, ptr noundef %40, ptr noundef %3, ptr noundef %4, ptr noundef %5, i1 noundef zeroext %6)
  %41 = add nuw i32 %.01, 1
  %exitcond.not = icmp eq i32 %41, %21
  br i1 %exitcond.not, label %.loopexit, label %.lr.ph, !llvm.loop !56

42:                                               ; preds = %17
  %43 = tail call ptr (ptr, ptr, ptr, ptr, ...) @expert_add_info_format(ptr noundef %1, ptr noundef %3, ptr noundef nonnull @ei_tango_unknown_exception, ptr noundef nonnull @.str.771, i32 noundef %19)
  br label %.loopexit

44:                                               ; preds = %7
  %45 = zext i8 %9 to i32
  %46 = tail call ptr (ptr, ptr, ptr, ptr, ...) @expert_add_info_format(ptr noundef %1, ptr noundef %3, ptr noundef nonnull @ei_tango_unknown_giop_msg, ptr noundef nonnull @.str.772, i32 noundef %45)
  br label %.loopexit

.loopexit:                                        ; preds = %.lr.ph, %20, %17, %42, %44, %10
  ret void
}